target datalayout = "e-m:e-p270:32:32-p271:32:32-p272:64:64-i64:64-i128:128-f80:128-n8:16:32:64-S128"
target triple = "x86_64-pc-linux-gnu"

%struct.Vec_Int_t_ = type { i32, i32, ptr }
%struct.Vec_Wec_t_ = type { i32, i32, ptr }

; Function Attrs: inlinehint nounwind uwtable
define internal ptr @Vec_WecAlloc(i32 noundef %0) #3 {
  %2 = alloca i32, align 4
  %3 = alloca ptr, align 8
  store i32 %0, ptr %2, align 4, !tbaa !12
  call void @llvm.lifetime.start.p0(i64 8, ptr %3) #13
  %4 = call noalias ptr @malloc(i64 noundef 16) #14
  store ptr %4, ptr %3, align 8, !tbaa !43
  %5 = load i32, ptr %2, align 4, !tbaa !12
  %6 = icmp sgt i32 %5, 0
  br i1 %6, label %7, label %11

7:                                                ; preds = %1
  %8 = load i32, ptr %2, align 4, !tbaa !12
  %9 = icmp slt i32 %8, 8
  br i1 %9, label %10, label %11

10:                                               ; preds = %7
  store i32 8, ptr %2, align 4, !tbaa !12
  br label %11

11:                                               ; preds = %10, %7, %1
  %12 = load ptr, ptr %3, align 8, !tbaa !43
  %13 = getelementptr inbounds nuw %struct.Vec_Wec_t_, ptr %12, i32 0, i32 1
  store i32 0, ptr %13, align 4, !tbaa !45
  %14 = load i32, ptr %2, align 4, !tbaa !12
  %15 = load ptr, ptr %3, align 8, !tbaa !43
  %16 = getelementptr inbounds nuw %struct.Vec_Wec_t_, ptr %15, i32 0, i32 0
  store i32 %14, ptr %16, align 8, !tbaa !88
  %17 = load ptr, ptr %3, align 8, !tbaa !43
  %18 = getelementptr inbounds nuw %struct.Vec_Wec_t_, ptr %17, i32 0, i32 0
  %19 = load i32, ptr %18, align 8, !tbaa !88
  %20 = icmp ne i32 %19, 0
  br i1 %20, label %21, label %27

21:                                               ; preds = %11
  %22 = load ptr, ptr %3, align 8, !tbaa !43
  %23 = getelementptr inbounds nuw %struct.Vec_Wec_t_, ptr %22, i32 0, i32 0
  %24 = load i32, ptr %23, align 8, !tbaa !88
  %25 = sext i32 %24 to i64
  %26 = call noalias ptr @calloc(i64 noundef %25, i64 noundef 16) #18
  br label %28

27:                                               ; preds = %11
  br label %28

28:                                               ; preds = %27, %21
  %29 = phi ptr [ %26, %21 ], [ null, %27 ]
  %30 = load ptr, ptr %3, align 8, !tbaa !43
  %31 = getelementptr inbounds nuw %struct.Vec_Wec_t_, ptr %30, i32 0, i32 2
  store ptr %29, ptr %31, align 8, !tbaa !58
  %32 = load ptr, ptr %3, align 8, !tbaa !43
  call void @llvm.lifetime.end.p0(i64 8, ptr %3) #13
  ret ptr %32
}

; Function Attrs: inlinehint nounwind uwtable
define internal i32 @Vec_IntEntry(ptr noundef %0, i32 noundef %1) #3 {
  %3 = alloca ptr, align 8
  %4 = alloca i32, align 4
  store ptr %0, ptr %3, align 8, !tbaa !10
  store i32 %1, ptr %4, align 4, !tbaa !12
  %5 = load ptr, ptr %3, align 8, !tbaa !10
  %6 = getelementptr inbounds nuw %struct.Vec_Int_t_, ptr %5, i32 0, i32 2
  %7 = load ptr, ptr %6, align 8, !tbaa !36
  %8 = load i32, ptr %4, align 4, !tbaa !12
  %9 = sext i32 %8 to i64
  %10 = getelementptr inbounds i32, ptr %7, i64 %9
  %11 = load i32, ptr %10, align 4, !tbaa !12
  ret i32 %11
}

; Function Attrs: inlinehint nounwind uwtable
define internal i32 @Vec_IntSize(ptr noundef %0) #3 {
  %2 = alloca ptr, align 8
  store ptr %0, ptr %2, align 8, !tbaa !10
  %3 = load ptr, ptr %2, align 8, !tbaa !10
  %4 = getelementptr inbounds nuw %struct.Vec_Int_t_, ptr %3, i32 0, i32 1
  %5 = load i32, ptr %4, align 4, !tbaa !34
  ret i32 %5
}

; Function Attrs: inlinehint nounwind uwtable
define internal ptr @Vec_WecStart(i32 noundef %0) #3 {
  %2 = alloca i32, align 4
  %3 = alloca ptr, align 8
  store i32 %0, ptr %2, align 4, !tbaa !12
  call void @llvm.lifetime.start.p0(i64 8, ptr %3) #13
  %4 = load i32, ptr %2, align 4, !tbaa !12
  %5 = call ptr @Vec_WecAlloc(i32 noundef %4)
  store ptr %5, ptr %3, align 8, !tbaa !43
  %6 = load i32, ptr %2, align 4, !tbaa !12
  %7 = load ptr, ptr %3, align 8, !tbaa !43
  %8 = getelementptr inbounds nuw %struct.Vec_Wec_t_, ptr %7, i32 0, i32 1
  store i32 %6, ptr %8, align 4, !tbaa !45
  %9 = load ptr, ptr %3, align 8, !tbaa !43
  call void @llvm.lifetime.end.p0(i64 8, ptr %3) #13
  ret ptr %9
}

; Function Attrs: nounwind uwtable
define ptr @Gia_PolynComputeMap(ptr noundef %0, i32 noundef %1) #0 {
  %3 = alloca ptr, align 8
  %4 = alloca i32, align 4
  %5 = alloca ptr, align 8
  %6 = alloca i32, align 4
  %7 = alloca i32, align 4
  %8 = alloca i32, align 4
  store ptr %0, ptr %3, align 8, !tbaa !10
  store i32 %1, ptr %4, align 4, !tbaa !12
  call void @llvm.lifetime.start.p0(i64 8, ptr %5) #13
  %9 = load i32, ptr %4, align 4, !tbaa !12
  %10 = call ptr @Vec_WecStart(i32 noundef %9)
  store ptr %10, ptr %5, align 8, !tbaa !43
  call void @llvm.lifetime.start.p0(i64 4, ptr %6) #13
  store i32 0, ptr %6, align 4, !tbaa !12
  br label %11

11:                                               ; preds = %40, %2
  %12 = load i32, ptr %6, align 4, !tbaa !12
  %13 = mul nsw i32 6, %12
  %14 = load ptr, ptr %3, align 8, !tbaa !10
  %15 = call i32 @Vec_IntSize(ptr noundef %14)
  %16 = icmp slt i32 %13, %15
  br i1 %16, label %17, label %43

17:                                               ; preds = %11
  call void @llvm.lifetime.start.p0(i64 4, ptr %7) #13
  %18 = load ptr, ptr %3, align 8, !tbaa !10
  %19 = load i32, ptr %6, align 4, !tbaa !12
  %20 = mul nsw i32 6, %19
  %21 = add nsw i32 %20, 3
  %22 = call i32 @Vec_IntEntry(ptr noundef %18, i32 noundef %21)
  store i32 %22, ptr %7, align 4, !tbaa !12
  call void @llvm.lifetime.start.p0(i64 4, ptr %8) #13
  %23 = load ptr, ptr %3, align 8, !tbaa !10
  %24 = load i32, ptr %6, align 4, !tbaa !12
  %25 = mul nsw i32 6, %24
  %26 = add nsw i32 %25, 4
  %27 = call i32 @Vec_IntEntry(ptr noundef %23, i32 noundef %26)
  store i32 %27, ptr %8, align 4, !tbaa !12
  %28 = load ptr, ptr %5, align 8, !tbaa !43
  %29 = load i32, ptr %7, align 4, !tbaa !12
  %30 = load i32, ptr %6, align 4, !tbaa !12
  call void @Vec_WecPush(ptr noundef %28, i32 noundef %29, i32 noundef %30)
  %31 = load ptr, ptr %5, align 8, !tbaa !43
  %32 = load i32, ptr %7, align 4, !tbaa !12
  %33 = load i32, ptr %8, align 4, !tbaa !12
  call void @Vec_WecPush(ptr noundef %31, i32 noundef %32, i32 noundef %33)
  %34 = load ptr, ptr %5, align 8, !tbaa !43
  %35 = load i32, ptr %8, align 4, !tbaa !12
  %36 = load i32, ptr %6, align 4, !tbaa !12
  call void @Vec_WecPush(ptr noundef %34, i32 noundef %35, i32 noundef %36)
  %37 = load ptr, ptr %5, align 8, !tbaa !43
  %38 = load i32, ptr %8, align 4, !tbaa !12
  %39 = load i32, ptr %7, align 4, !tbaa !12
  call void @Vec_WecPush(ptr noundef %37, i32 noundef %38, i32 noundef %39)
  call void @llvm.lifetime.end.p0(i64 4, ptr %8) #13
  call void @llvm.lifetime.end.p0(i64 4, ptr %7) #13
  br label %40

40:                                               ; preds = %17
  %41 = load i32, ptr %6, align 4, !tbaa !12
  %42 = add nsw i32 %41, 1
  store i32 %42, ptr %6, align 4, !tbaa !12
  br label %11, !llvm.loop !44

43:                                               ; preds = %11
  %44 = load ptr, ptr %5, align 8, !tbaa !43
  call void @llvm.lifetime.end.p0(i64 4, ptr %6) #13
  call void @llvm.lifetime.end.p0(i64 8, ptr %5) #13
  ret ptr %44
}