; Function Attrs: nounwind uwtable
define noalias noundef ptr @Gia_PolynComputeMap(ptr noundef readonly captures(none) %0, i32 noundef %1) local_unnamed_addr #0 {
  %3 = tail call noalias dereferenceable_or_null(16) ptr @malloc(i64 noundef 16) #21
  %4 = add i32 %1, -1
  %or.cond.i.i = icmp ult i32 %4, 7
  %spec.store.select.i.i = select i1 %or.cond.i.i, i32 8, i32 %1
  store i32 %spec.store.select.i.i, ptr %3, align 8, !tbaa !41
  %.not.i.i = icmp eq i32 %spec.store.select.i.i, 0
  br i1 %.not.i.i, label %Vec_WecStart.exit, label %5

5:                                                ; preds = %2
  %6 = sext i32 %spec.store.select.i.i to i64
  %7 = tail call noalias ptr @calloc(i64 noundef %6, i64 noundef 16) #22
  br label %Vec_WecStart.exit

Vec_WecStart.exit:                                ; preds = %2, %5
  %8 = phi ptr [ %7, %5 ], [ null, %2 ]
  %9 = getelementptr inbounds nuw i8, ptr %3, i64 4
  %10 = getelementptr inbounds nuw i8, ptr %3, i64 8
  store ptr %8, ptr %10, align 8, !tbaa !43
  store i32 %1, ptr %9, align 4, !tbaa !44
  %11 = getelementptr i8, ptr %0, i64 4
  %.val23 = load i32, ptr %11, align 4, !tbaa !29
  %12 = icmp sgt i32 %.val23, 0
  br i1 %12, label %.lr.ph, label %._crit_edge

.lr.ph:                                           ; preds = %Vec_WecStart.exit
  %13 = getelementptr i8, ptr %0, i64 8
  br label %14

14:                                               ; preds = %.lr.ph, %14
  %indvars.iv25 = phi i64 [ 0, %.lr.ph ], [ %indvars.iv.next26, %14 ]
  %indvars.iv = phi i64 [ 0, %.lr.ph ], [ %indvars.iv.next, %14 ]
  %.val22 = load ptr, ptr %13, align 8, !tbaa !31
  %15 = getelementptr inbounds nuw i32, ptr %.val22, i64 %indvars.iv
  %16 = getelementptr inbounds nuw i8, ptr %15, i64 12
  %17 = load i32, ptr %16, align 4, !tbaa !32
  %18 = getelementptr inbounds nuw i8, ptr %15, i64 16
  %19 = load i32, ptr %18, align 4, !tbaa !32
  %20 = trunc nuw nsw i64 %indvars.iv25 to i32
  tail call fastcc void @Vec_WecPush(ptr noundef nonnull %3, i32 noundef %17, i32 noundef %20)
  tail call fastcc void @Vec_WecPush(ptr noundef nonnull %3, i32 noundef %17, i32 noundef %19)
  tail call fastcc void @Vec_WecPush(ptr noundef nonnull %3, i32 noundef %19, i32 noundef %20)
  tail call fastcc void @Vec_WecPush(ptr noundef nonnull %3, i32 noundef %19, i32 noundef %17)
  %indvars.iv.next26 = add nuw nsw i64 %indvars.iv25, 1
  %21 = mul nuw nsw i64 %indvars.iv.next26, 6
  %.val = load i32, ptr %11, align 4, !tbaa !29
  %22 = sext i32 %.val to i64
  %23 = icmp slt i64 %21, %22
  %indvars.iv.next = add nuw nsw i64 %indvars.iv, 6
  br i1 %23, label %14, label %._crit_edge, !llvm.loop !45

._crit_edge:                                      ; preds = %14, %Vec_WecStart.exit
  ret ptr %3
}